target datalayout = "e-m:e-p270:32:32-p271:32:32-p272:64:64-i64:64-i128:128-f80:128-n8:16:32:64-S128"
target triple = "x86_64-pc-linux-gnu"

%"class.Assimp::MDLImporter" = type <{ %"class.Assimp::BaseImporter", i32, [4 x i8], %"class.std::__cxx11::basic_string", ptr, i32, [4 x i8], ptr, ptr, i32, %"struct.Assimp::MDL::HalfLife::HL1ImportSettings", i8 }>
%"class.Assimp::BaseImporter" = type { ptr, double, double, %"class.std::__cxx11::basic_string", %"class.std::__exception_ptr::exception_ptr", ptr }
%"class.std::__exception_ptr::exception_ptr" = type { ptr }
%"class.std::__cxx11::basic_string" = type { %"struct.std::__cxx11::basic_string<char>::_Alloc_hider", i64, %union.anon }
%"struct.std::__cxx11::basic_string<char>::_Alloc_hider" = type { ptr }
%union.anon = type { i64, [8 x i8] }
%"struct.Assimp::MDL::HalfLife::HL1ImportSettings" = type { i8, i8, i8, i8, i8, i8, i8, i8, i8, i8, i8 }
%"struct.Assimp::HMP::Header_HMP5" = type { [4 x i8], i32, [3 x float], [3 x float], float, float, float, float, i32, i32, i32, i32, i32, i32, i32, i32, float }

@_ZTI17DeadlyImportError = linkonce_odr constant { ptr, ptr, ptr } { ptr getelementptr inbounds (ptr, ptr @_ZTVN10__cxxabiv120__si_class_type_infoE, i64 2), ptr @_ZTS17DeadlyImportError, ptr @_ZTI15DeadlyErrorBase }, comdat, align 8
@.str.16 = private unnamed_addr constant [71 x i8] c"HMP file is too small (header size is 120 bytes, this file is smaller)\00", align 1
@.str.17 = private unnamed_addr constant [59 x i8] c"Size of triangles in either x or y direction is not finite\00", align 1
@.str.18 = private unnamed_addr constant [53 x i8] c"Size of triangles in either x or y direction is zero\00", align 1
@.str.19 = private unnamed_addr constant [49 x i8] c"Number of triangles in x direction is not finite\00", align 1
@.str.20 = private unnamed_addr constant [55 x i8] c"Number of triangles in either x or y direction is zero\00", align 1
@.str.21 = private unnamed_addr constant [50 x i8] c"There are no frames. At least one should be there\00", align 1

; Function Attrs: mustprogress nounwind uwtable
define linkonce_odr noundef zeroext i1 @_ZSt8isfinitef(float noundef %0) #2 comdat {
  %2 = alloca float, align 4
  store float %0, ptr %2, align 4
  %3 = load float, ptr %2, align 4
  %4 = call i1 @llvm.is.fpclass.f32(float %3, i32 504)
  ret i1 %4
}

; Function Attrs: mustprogress uwtable
define hidden void @_ZN6Assimp11HMPImporter21ValidateHeader_HMP457Ev(ptr noundef nonnull align 8 dereferenceable(159) %0) #0 align 2 personality ptr @__gxx_personality_v0 {
  %2 = alloca ptr, align 8
  %3 = alloca ptr, align 8
  %4 = alloca ptr, align 8
  %5 = alloca i32, align 4
  store ptr %0, ptr %2, align 8
  %6 = load ptr, ptr %2, align 8
  call void @llvm.lifetime.start.p0(i64 8, ptr %3) #17
  %7 = getelementptr inbounds nuw %"class.Assimp::MDLImporter", ptr %6, i32 0, i32 4
  %8 = load ptr, ptr %7, align 8
  store ptr %8, ptr %3, align 8
  %9 = getelementptr inbounds nuw %"class.Assimp::MDLImporter", ptr %6, i32 0, i32 9
  %10 = load i32, ptr %9, align 8
  %11 = icmp ugt i32 120, %10
  br i1 %11, label %12, label %19

12:                                               ; preds = %1
  %13 = call ptr @__cxa_allocate_exception(i64 16) #17
  invoke void @_ZN17DeadlyImportErrorC2EPKc(ptr noundef nonnull align 8 dereferenceable(16) %13, ptr noundef @.str.16)
          to label %14 unwind label %15

14:                                               ; preds = %12
  call void @__cxa_throw(ptr %13, ptr @_ZTI17DeadlyImportError, ptr @_ZNSt13runtime_errorD2Ev) #19
  unreachable

15:                                               ; preds = %12
  %16 = landingpad { ptr, i32 }
          cleanup
  %17 = extractvalue { ptr, i32 } %16, 0
  store ptr %17, ptr %4, align 8
  %18 = extractvalue { ptr, i32 } %16, 1
  store i32 %18, ptr %5, align 4
  call void @__cxa_free_exception(ptr %13) #17
  br label %100

19:                                               ; preds = %1
  %20 = load ptr, ptr %3, align 8
  %21 = getelementptr inbounds nuw %"struct.Assimp::HMP::Header_HMP5", ptr %20, i32 0, i32 5
  %22 = load float, ptr %21, align 1
  %23 = call noundef zeroext i1 @_ZSt8isfinitef(float noundef %22)
  br i1 %23, label %24, label %29

24:                                               ; preds = %19
  %25 = load ptr, ptr %3, align 8
  %26 = getelementptr inbounds nuw %"struct.Assimp::HMP::Header_HMP5", ptr %25, i32 0, i32 6
  %27 = load float, ptr %26, align 1
  %28 = call noundef zeroext i1 @_ZSt8isfinitef(float noundef %27)
  br i1 %28, label %36, label %29

29:                                               ; preds = %24, %19
  %30 = call ptr @__cxa_allocate_exception(i64 16) #17
  invoke void @_ZN17DeadlyImportErrorC2EPKc(ptr noundef nonnull align 8 dereferenceable(16) %30, ptr noundef @.str.17)
          to label %31 unwind label %32

31:                                               ; preds = %29
  call void @__cxa_throw(ptr %30, ptr @_ZTI17DeadlyImportError, ptr @_ZNSt13runtime_errorD2Ev) #19
  unreachable

32:                                               ; preds = %29
  %33 = landingpad { ptr, i32 }
          cleanup
  %34 = extractvalue { ptr, i32 } %33, 0
  store ptr %34, ptr %4, align 8
  %35 = extractvalue { ptr, i32 } %33, 1
  store i32 %35, ptr %5, align 4
  call void @__cxa_free_exception(ptr %30) #17
  br label %100

36:                                               ; preds = %24
  %37 = load ptr, ptr %3, align 8
  %38 = getelementptr inbounds nuw %"struct.Assimp::HMP::Header_HMP5", ptr %37, i32 0, i32 5
  %39 = load float, ptr %38, align 1
  %40 = fcmp une float %39, 0.000000e+00
  br i1 %40, label %41, label %46

41:                                               ; preds = %36
  %42 = load ptr, ptr %3, align 8
  %43 = getelementptr inbounds nuw %"struct.Assimp::HMP::Header_HMP5", ptr %42, i32 0, i32 6
  %44 = load float, ptr %43, align 1
  %45 = fcmp une float %44, 0.000000e+00
  br i1 %45, label %53, label %46

46:                                               ; preds = %41, %36
  %47 = call ptr @__cxa_allocate_exception(i64 16) #17
  invoke void @_ZN17DeadlyImportErrorC2EPKc(ptr noundef nonnull align 8 dereferenceable(16) %47, ptr noundef @.str.18)
          to label %48 unwind label %49

48:                                               ; preds = %46
  call void @__cxa_throw(ptr %47, ptr @_ZTI17DeadlyImportError, ptr @_ZNSt13runtime_errorD2Ev) #19
  unreachable

49:                                               ; preds = %46
  %50 = landingpad { ptr, i32 }
          cleanup
  %51 = extractvalue { ptr, i32 } %50, 0
  store ptr %51, ptr %4, align 8
  %52 = extractvalue { ptr, i32 } %50, 1
  store i32 %52, ptr %5, align 4
  call void @__cxa_free_exception(ptr %47) #17
  br label %100

53:                                               ; preds = %41
  %54 = load ptr, ptr %3, align 8
  %55 = getelementptr inbounds nuw %"struct.Assimp::HMP::Header_HMP5", ptr %54, i32 0, i32 7
  %56 = load float, ptr %55, align 1
  %57 = call noundef zeroext i1 @_ZSt8isfinitef(float noundef %56)
  br i1 %57, label %65, label %58

58:                                               ; preds = %53
  %59 = call ptr @__cxa_allocate_exception(i64 16) #17
  invoke void @_ZN17DeadlyImportErrorC2EPKc(ptr noundef nonnull align 8 dereferenceable(16) %59, ptr noundef @.str.19)
          to label %60 unwind label %61

60:                                               ; preds = %58
  call void @__cxa_throw(ptr %59, ptr @_ZTI17DeadlyImportError, ptr @_ZNSt13runtime_errorD2Ev) #19
  unreachable

61:                                               ; preds = %58
  %62 = landingpad { ptr, i32 }
          cleanup
  %63 = extractvalue { ptr, i32 } %62, 0
  store ptr %63, ptr %4, align 8
  %64 = extractvalue { ptr, i32 } %62, 1
  store i32 %64, ptr %5, align 4
  call void @__cxa_free_exception(ptr %59) #17
  br label %100

65:                                               ; preds = %53
  %66 = load ptr, ptr %3, align 8
  %67 = getelementptr inbounds nuw %"struct.Assimp::HMP::Header_HMP5", ptr %66, i32 0, i32 7
  %68 = load float, ptr %67, align 1
  %69 = fcmp olt float %68, 1.000000e+00
  br i1 %69, label %80, label %70

70:                                               ; preds = %65
  %71 = load ptr, ptr %3, align 8
  %72 = getelementptr inbounds nuw %"struct.Assimp::HMP::Header_HMP5", ptr %71, i32 0, i32 11
  %73 = load i32, ptr %72, align 1
  %74 = sitofp i32 %73 to float
  %75 = load ptr, ptr %3, align 8
  %76 = getelementptr inbounds nuw %"struct.Assimp::HMP::Header_HMP5", ptr %75, i32 0, i32 7
  %77 = load float, ptr %76, align 1
  %78 = fdiv float %74, %77
  %79 = fcmp olt float %78, 1.000000e+00
  br i1 %79, label %80, label %87

80:                                               ; preds = %70, %65
  %81 = call ptr @__cxa_allocate_exception(i64 16) #17
  invoke void @_ZN17DeadlyImportErrorC2EPKc(ptr noundef nonnull align 8 dereferenceable(16) %81, ptr noundef @.str.20)
          to label %82 unwind label %83

82:                                               ; preds = %80
  call void @__cxa_throw(ptr %81, ptr @_ZTI17DeadlyImportError, ptr @_ZNSt13runtime_errorD2Ev) #19
  unreachable

83:                                               ; preds = %80
  %84 = landingpad { ptr, i32 }
          cleanup
  %85 = extractvalue { ptr, i32 } %84, 0
  store ptr %85, ptr %4, align 8
  %86 = extractvalue { ptr, i32 } %84, 1
  store i32 %86, ptr %5, align 4
  call void @__cxa_free_exception(ptr %81) #17
  br label %100

87:                                               ; preds = %70
  %88 = load ptr, ptr %3, align 8
  %89 = getelementptr inbounds nuw %"struct.Assimp::HMP::Header_HMP5", ptr %88, i32 0, i32 13
  %90 = load i32, ptr %89, align 1
  %91 = icmp ne i32 %90, 0
  br i1 %91, label %99, label %92

92:                                               ; preds = %87
  %93 = call ptr @__cxa_allocate_exception(i64 16) #17
  invoke void @_ZN17DeadlyImportErrorC2EPKc(ptr noundef nonnull align 8 dereferenceable(16) %93, ptr noundef @.str.21)
          to label %94 unwind label %95

94:                                               ; preds = %92
  call void @__cxa_throw(ptr %93, ptr @_ZTI17DeadlyImportError, ptr @_ZNSt13runtime_errorD2Ev) #19
  unreachable

95:                                               ; preds = %92
  %96 = landingpad { ptr, i32 }
          cleanup
  %97 = extractvalue { ptr, i32 } %96, 0
  store ptr %97, ptr %4, align 8
  %98 = extractvalue { ptr, i32 } %96, 1
  store i32 %98, ptr %5, align 4
  call void @__cxa_free_exception(ptr %93) #17
  br label %100

99:                                               ; preds = %87
  call void @llvm.lifetime.end.p0(i64 8, ptr %3) #17
  ret void

100:                                              ; preds = %95, %83, %61, %49, %32, %15
  call void @llvm.lifetime.end.p0(i64 8, ptr %3) #17
  br label %101

101:                                              ; preds = %100
  %102 = load ptr, ptr %4, align 8
  %103 = load i32, ptr %5, align 4
  %104 = insertvalue { ptr, i32 } poison, ptr %102, 0
  %105 = insertvalue { ptr, i32 } %104, i32 %103, 1
  resume { ptr, i32 } %105
}