; Function Attrs: mustprogress uwtable
define hidden void @_ZN6Assimp11HMPImporter21ValidateHeader_HMP457Ev(ptr noundef nonnull readonly align 8 captures(none) dereferenceable(159) %0) local_unnamed_addr #0 align 2 personality ptr @__gxx_personality_v0 {
  %2 = getelementptr inbounds nuw i8, ptr %0, i64 112
  %3 = load ptr, ptr %2, align 8
  %4 = getelementptr inbounds nuw i8, ptr %0, i64 144
  %5 = load i32, ptr %4, align 8
  %6 = icmp ult i32 %5, 120
  br i1 %6, label %7, label %12

7:                                                ; preds = %1
  %8 = tail call ptr @__cxa_allocate_exception(i64 16) #22
  invoke void @_ZN17DeadlyImportErrorC2EPKc(ptr noundef nonnull align 8 dereferenceable(16) %8, ptr noundef nonnull @.str.16)
          to label %9 unwind label %10

9:                                                ; preds = %7
  tail call void @__cxa_throw(ptr nonnull %8, ptr nonnull @_ZTI17DeadlyImportError, ptr nonnull @_ZNSt13runtime_errorD2Ev) #23
  unreachable

10:                                               ; preds = %7
  %11 = landingpad { ptr, i32 }
          cleanup
  br label %67

12:                                               ; preds = %1
  %13 = getelementptr inbounds nuw i8, ptr %3, i64 36
  %14 = load float, ptr %13, align 1
  %15 = tail call float @llvm.fabs.f32(float %14)
  %16 = fcmp ueq float %15, 0x7FF0000000000000
  br i1 %16, label %22, label %17

17:                                               ; preds = %12
  %18 = getelementptr inbounds nuw i8, ptr %3, i64 40
  %19 = load float, ptr %18, align 1
  %20 = tail call float @llvm.fabs.f32(float %19)
  %21 = fcmp ueq float %20, 0x7FF0000000000000
  br i1 %21, label %22, label %27

22:                                               ; preds = %17, %12
  %23 = tail call ptr @__cxa_allocate_exception(i64 16) #22
  invoke void @_ZN17DeadlyImportErrorC2EPKc(ptr noundef nonnull align 8 dereferenceable(16) %23, ptr noundef nonnull @.str.17)
          to label %24 unwind label %25

24:                                               ; preds = %22
  tail call void @__cxa_throw(ptr nonnull %23, ptr nonnull @_ZTI17DeadlyImportError, ptr nonnull @_ZNSt13runtime_errorD2Ev) #23
  unreachable

25:                                               ; preds = %22
  %26 = landingpad { ptr, i32 }
          cleanup
  br label %67

27:                                               ; preds = %17
  %28 = fcmp une float %14, 0.000000e+00
  %29 = fcmp une float %19, 0.000000e+00
  %or.cond = select i1 %28, i1 %29, i1 false
  br i1 %or.cond, label %35, label %30

30:                                               ; preds = %27
  %31 = tail call ptr @__cxa_allocate_exception(i64 16) #22
  invoke void @_ZN17DeadlyImportErrorC2EPKc(ptr noundef nonnull align 8 dereferenceable(16) %31, ptr noundef nonnull @.str.18)
          to label %32 unwind label %33

32:                                               ; preds = %30
  tail call void @__cxa_throw(ptr nonnull %31, ptr nonnull @_ZTI17DeadlyImportError, ptr nonnull @_ZNSt13runtime_errorD2Ev) #23
  unreachable

33:                                               ; preds = %30
  %34 = landingpad { ptr, i32 }
          cleanup
  br label %67

35:                                               ; preds = %27
  %36 = getelementptr inbounds nuw i8, ptr %3, i64 44
  %37 = load float, ptr %36, align 1
  %38 = tail call float @llvm.fabs.f32(float %37)
  %39 = fcmp ueq float %38, 0x7FF0000000000000
  br i1 %39, label %40, label %45

40:                                               ; preds = %35
  %41 = tail call ptr @__cxa_allocate_exception(i64 16) #22
  invoke void @_ZN17DeadlyImportErrorC2EPKc(ptr noundef nonnull align 8 dereferenceable(16) %41, ptr noundef nonnull @.str.19)
          to label %42 unwind label %43

42:                                               ; preds = %40
  tail call void @__cxa_throw(ptr nonnull %41, ptr nonnull @_ZTI17DeadlyImportError, ptr nonnull @_ZNSt13runtime_errorD2Ev) #23
  unreachable

43:                                               ; preds = %40
  %44 = landingpad { ptr, i32 }
          cleanup
  br label %67

45:                                               ; preds = %35
  %46 = fcmp olt float %37, 1.000000e+00
  br i1 %46, label %53, label %47

47:                                               ; preds = %45
  %48 = getelementptr inbounds nuw i8, ptr %3, i64 60
  %49 = load i32, ptr %48, align 1
  %50 = sitofp i32 %49 to float
  %51 = fdiv float %50, %37
  %52 = fcmp olt float %51, 1.000000e+00
  br i1 %52, label %53, label %58

53:                                               ; preds = %47, %45
  %54 = tail call ptr @__cxa_allocate_exception(i64 16) #22
  invoke void @_ZN17DeadlyImportErrorC2EPKc(ptr noundef nonnull align 8 dereferenceable(16) %54, ptr noundef nonnull @.str.20)
          to label %55 unwind label %56

55:                                               ; preds = %53
  tail call void @__cxa_throw(ptr nonnull %54, ptr nonnull @_ZTI17DeadlyImportError, ptr nonnull @_ZNSt13runtime_errorD2Ev) #23
  unreachable

56:                                               ; preds = %53
  %57 = landingpad { ptr, i32 }
          cleanup
  br label %67

58:                                               ; preds = %47
  %59 = getelementptr inbounds nuw i8, ptr %3, i64 68
  %60 = load i32, ptr %59, align 1
  %.not = icmp eq i32 %60, 0
  br i1 %.not, label %61, label %66

61:                                               ; preds = %58
  %62 = tail call ptr @__cxa_allocate_exception(i64 16) #22
  invoke void @_ZN17DeadlyImportErrorC2EPKc(ptr noundef nonnull align 8 dereferenceable(16) %62, ptr noundef nonnull @.str.21)
          to label %63 unwind label %64

63:                                               ; preds = %61
  tail call void @__cxa_throw(ptr nonnull %62, ptr nonnull @_ZTI17DeadlyImportError, ptr nonnull @_ZNSt13runtime_errorD2Ev) #23
  unreachable

64:                                               ; preds = %61
  %65 = landingpad { ptr, i32 }
          cleanup
  br label %67

66:                                               ; preds = %58
  ret void

67:                                               ; preds = %64, %56, %43, %33, %25, %10
  %.sink = phi ptr [ %62, %64 ], [ %54, %56 ], [ %41, %43 ], [ %31, %33 ], [ %23, %25 ], [ %8, %10 ]
  %.pn = phi { ptr, i32 } [ %65, %64 ], [ %57, %56 ], [ %44, %43 ], [ %34, %33 ], [ %26, %25 ], [ %11, %10 ]
  tail call void @__cxa_free_exception(ptr nonnull %.sink) #22
  resume { ptr, i32 } %.pn
}